; Function Attrs: nounwind uwtable
define hidden i32 @mbedtls_pk_can_do(ptr noundef readonly %0, i32 noundef %1) local_unnamed_addr #1 {
  %3 = icmp eq ptr %0, null
  br i1 %3, label %11, label %4

4:                                                ; preds = %2
  %5 = load ptr, ptr %0, align 8, !tbaa !3
  %6 = icmp eq ptr %5, null
  br i1 %6, label %11, label %7

7:                                                ; preds = %4
  %8 = getelementptr inbounds nuw i8, ptr %5, i64 24
  %9 = load ptr, ptr %8, align 8, !tbaa !20
  %10 = tail call i32 %9(i32 noundef %1) #7
  br label %11

11:                                               ; preds = %2, %4, %7
  %.0 = phi i32 [ %10, %7 ], [ 0, %4 ], [ 0, %2 ]
  ret i32 %.0
}